target datalayout = "e-m:e-p270:32:32-p271:32:32-p272:64:64-i64:64-i128:128-f80:128-n8:16:32:64-S128"
target triple = "x86_64-pc-linux-gnu"

%"class.boost::log::v2_mt_posix::sinks::aux::default_sink" = type <{ %"class.boost::log::v2_mt_posix::sinks::sink.base", [7 x i8], %"class.std::mutex", %"class.boost::log::v2_mt_posix::attribute_name", %"class.boost::log::v2_mt_posix::attribute_name", %"class.boost::log::v2_mt_posix::value_extractor", [4 x i8] }>
%"class.boost::log::v2_mt_posix::sinks::sink.base" = type <{ ptr, i8 }>
%"class.std::mutex" = type { %"class.std::__mutex_base" }
%"class.std::__mutex_base" = type { %union.pthread_mutex_t }
%union.pthread_mutex_t = type { %struct.__pthread_mutex_s }
%struct.__pthread_mutex_s = type { i32, i32, i32, i32, i32, i16, i16, %struct.__pthread_internal_list }
%struct.__pthread_internal_list = type { ptr, ptr }
%"class.boost::log::v2_mt_posix::attribute_name" = type { i32 }
%"class.boost::log::v2_mt_posix::value_extractor" = type { %"struct.boost::log::v2_mt_posix::fallback_to_default" }
%"struct.boost::log::v2_mt_posix::fallback_to_default" = type { i32 }
%"class.std::lock_guard" = type { ptr }
%"struct.boost::log::v2_mt_posix::sinks::aux::anonymous::message_printer" = type { i32 }
%"class.boost::log::v2_mt_posix::value_ref" = type { %"class.boost::log::v2_mt_posix::aux::singular_ref" }
%"class.boost::log::v2_mt_posix::aux::singular_ref" = type { ptr }
%"class.boost::log::v2_mt_posix::visitation_result" = type { i32 }
%"class.boost::log::v2_mt_posix::record_view" = type { %"class.boost::intrusive_ptr" }
%"class.boost::intrusive_ptr" = type { ptr }
%"struct.boost::log::v2_mt_posix::record_view::public_data" = type { %"class.boost::atomics::atomic", %"class.boost::log::v2_mt_posix::attribute_value_set" }
%"class.boost::atomics::atomic" = type { %"class.boost::atomics::detail::base_atomic" }
%"class.boost::atomics::detail::base_atomic" = type { %"class.boost::atomics::detail::base_atomic_common" }
%"class.boost::atomics::detail::base_atomic_common" = type { i32 }
%"class.boost::log::v2_mt_posix::attribute_value_set" = type { ptr }

@stdout = external global ptr, align 8

; Function Attrs: inlinehint mustprogress nounwind uwtable
define internal noundef i32 @_ZL18__gthread_active_pv() #12 {
  ret i32 1
}

; Function Attrs: inlinehint mustprogress nounwind uwtable
define internal noundef i32 @_ZL22__gthread_mutex_unlockP15pthread_mutex_t(ptr noundef %0) #12 {
  %2 = alloca i32, align 4
  %3 = alloca ptr, align 8
  store ptr %0, ptr %3, align 8, !tbaa !3
  %4 = call noundef i32 @_ZL18__gthread_active_pv()
  %5 = icmp ne i32 %4, 0
  br i1 %5, label %6, label %9

6:                                                ; preds = %1
  %7 = load ptr, ptr %3, align 8, !tbaa !3
  %8 = call i32 @pthread_mutex_unlock(ptr noundef %7) #17
  store i32 %8, ptr %2, align 4
  br label %10

9:                                                ; preds = %1
  store i32 0, ptr %2, align 4
  br label %10

10:                                               ; preds = %9, %6
  %11 = load i32, ptr %2, align 4
  ret i32 %11
}

; Function Attrs: inlinehint mustprogress uwtable
define internal noundef i32 @_ZL20__gthread_mutex_lockP15pthread_mutex_t(ptr noundef %0) #10 {
  %2 = alloca i32, align 4
  %3 = alloca ptr, align 8
  store ptr %0, ptr %3, align 8, !tbaa !3
  %4 = call noundef i32 @_ZL18__gthread_active_pv()
  %5 = icmp ne i32 %4, 0
  br i1 %5, label %6, label %9

6:                                                ; preds = %1
  %7 = load ptr, ptr %3, align 8, !tbaa !3
  %8 = call i32 @pthread_mutex_lock(ptr noundef %7) #17
  store i32 %8, ptr %2, align 4
  br label %10

9:                                                ; preds = %1
  store i32 0, ptr %2, align 4
  br label %10

10:                                               ; preds = %9, %6
  %11 = load i32, ptr %2, align 4
  ret i32 %11
}

; Function Attrs: noinline noreturn nounwind uwtable
define linkonce_odr hidden void @__clang_call_terminate(ptr noundef %0) #0 comdat {
  %2 = call ptr @__cxa_begin_catch(ptr %0) #17
  call void @_ZSt9terminatev() #24
  unreachable
}

; Function Attrs: mustprogress uwtable
define linkonce_odr hidden void @_ZNSt5mutex6unlockEv(ptr noundef nonnull align 8 dereferenceable(40) %0) #3 comdat align 2 {
  %2 = alloca ptr, align 8
  store ptr %0, ptr %2, align 8, !tbaa !3
  %3 = load ptr, ptr %2, align 8
  %4 = getelementptr inbounds nuw %"class.std::__mutex_base", ptr %3, i32 0, i32 0
  %5 = call noundef i32 @_ZL22__gthread_mutex_unlockP15pthread_mutex_t(ptr noundef %4)
  ret void
}

; Function Attrs: mustprogress nounwind uwtable
define linkonce_odr hidden noundef ptr @_ZNK5boost13intrusive_ptrINS_3log11v2_mt_posix11record_view11public_dataEEptEv(ptr noundef nonnull align 8 dereferenceable(8) %0) #2 comdat align 2 {
  %2 = alloca ptr, align 8
  store ptr %0, ptr %2, align 8, !tbaa !3
  %3 = load ptr, ptr %2, align 8
  %4 = getelementptr inbounds nuw %"class.boost::intrusive_ptr", ptr %3, i32 0, i32 0
  %5 = load ptr, ptr %4, align 8, !tbaa !31
  ret ptr %5
}

; Function Attrs: mustprogress uwtable
define linkonce_odr hidden void @_ZNSt5mutex4lockEv(ptr noundef nonnull align 8 dereferenceable(40) %0) #3 comdat align 2 {
  %2 = alloca ptr, align 8
  %3 = alloca i32, align 4
  store ptr %0, ptr %2, align 8, !tbaa !3
  %4 = load ptr, ptr %2, align 8
  call void @llvm.lifetime.start.p0(i64 4, ptr %3) #17
  %5 = getelementptr inbounds nuw %"class.std::__mutex_base", ptr %4, i32 0, i32 0
  %6 = call noundef i32 @_ZL20__gthread_mutex_lockP15pthread_mutex_t(ptr noundef %5)
  store i32 %6, ptr %3, align 4, !tbaa !20
  %7 = load i32, ptr %3, align 4, !tbaa !20
  %8 = icmp ne i32 %7, 0
  br i1 %8, label %9, label %11

9:                                                ; preds = %1
  %10 = load i32, ptr %3, align 4, !tbaa !20
  call void @_ZSt20__throw_system_errori(i32 noundef %10) #25
  unreachable

11:                                               ; preds = %1
  call void @llvm.lifetime.end.p0(i64 4, ptr %3) #17
  ret void
}

; Function Attrs: mustprogress nounwind uwtable
define linkonce_odr hidden void @_ZNSt10lock_guardISt5mutexED2Ev(ptr noundef nonnull align 8 dereferenceable(8) %0) unnamed_addr #2 comdat align 2 personality ptr @__gxx_personality_v0 {
  %2 = alloca ptr, align 8
  store ptr %0, ptr %2, align 8, !tbaa !3
  %3 = load ptr, ptr %2, align 8
  %4 = getelementptr inbounds nuw %"class.std::lock_guard", ptr %3, i32 0, i32 0
  %5 = load ptr, ptr %4, align 8, !tbaa !17
  invoke void @_ZNSt5mutex6unlockEv(ptr noundef nonnull align 8 dereferenceable(40) %5)
          to label %6 unwind label %7

6:                                                ; preds = %1
  ret void

7:                                                ; preds = %1
  %8 = landingpad { ptr, i32 }
          catch ptr null
  %9 = extractvalue { ptr, i32 } %8, 0
  call void @__clang_call_terminate(ptr %9) #24
  unreachable
}

; Function Attrs: mustprogress nounwind uwtable
define linkonce_odr hidden void @_ZN5boost3log11v2_mt_posix5sinks3aux9anonymous15message_printerC2ENS1_7trivial14severity_levelE(ptr noundef nonnull align 4 dereferenceable(4) %0, i32 noundef %1) unnamed_addr #2 comdat align 2 {
  %3 = alloca ptr, align 8
  %4 = alloca i32, align 4
  store ptr %0, ptr %3, align 8, !tbaa !3
  store i32 %1, ptr %4, align 4, !tbaa !9
  %5 = load ptr, ptr %3, align 8
  %6 = getelementptr inbounds nuw %"struct.boost::log::v2_mt_posix::sinks::aux::anonymous::message_printer", ptr %5, i32 0, i32 0
  %7 = load i32, ptr %4, align 4, !tbaa !9
  store i32 %7, ptr %6, align 4, !tbaa !25
  ret void
}

; Function Attrs: mustprogress nounwind uwtable
define linkonce_odr hidden noundef nonnull align 4 dereferenceable(4) ptr @_ZNK5boost3log11v2_mt_posix3aux12singular_refINS1_7trivial14severity_levelEvE3getEv(ptr noundef nonnull align 8 dereferenceable(8) %0) #2 comdat align 2 {
  %2 = alloca ptr, align 8
  store ptr %0, ptr %2, align 8, !tbaa !3
  %3 = load ptr, ptr %2, align 8
  %4 = getelementptr inbounds nuw %"class.boost::log::v2_mt_posix::aux::singular_ref", ptr %3, i32 0, i32 0
  %5 = load ptr, ptr %4, align 8, !tbaa !23
  ret ptr %5
}

; Function Attrs: mustprogress uwtable
define linkonce_odr hidden ptr @_ZNK5boost3log11v2_mt_posix15value_extractorINS1_7trivial14severity_levelENS1_19fallback_to_defaultIS4_EEvEclERKNS1_14attribute_nameERKNS1_11record_viewE(ptr noundef nonnull align 4 dereferenceable(4) %0, ptr noundef nonnull align 4 dereferenceable(4) %1, ptr noundef nonnull align 8 dereferenceable(8) %2) #3 comdat align 2 {
  %4 = alloca %"class.boost::log::v2_mt_posix::value_ref", align 8
  %5 = alloca ptr, align 8
  %6 = alloca ptr, align 8
  %7 = alloca ptr, align 8
  store ptr %0, ptr %5, align 8, !tbaa !3
  store ptr %1, ptr %6, align 8, !tbaa !3
  store ptr %2, ptr %7, align 8, !tbaa !3
  %8 = load ptr, ptr %5, align 8
  %9 = load ptr, ptr %6, align 8, !tbaa !3
  %10 = load ptr, ptr %7, align 8, !tbaa !3
  %11 = call noundef nonnull align 8 dereferenceable(8) ptr @_ZNK5boost3log11v2_mt_posix11record_view16attribute_valuesEv(ptr noundef nonnull align 8 dereferenceable(8) %10) #17
  %12 = call ptr @_ZNK5boost3log11v2_mt_posix15value_extractorINS1_7trivial14severity_levelENS1_19fallback_to_defaultIS4_EEvEclERKNS1_14attribute_nameERKNS1_19attribute_value_setE(ptr noundef nonnull align 4 dereferenceable(4) %8, ptr noundef nonnull align 4 dereferenceable(4) %9, ptr noundef nonnull align 8 dereferenceable(8) %11)
  %13 = getelementptr inbounds nuw %"class.boost::log::v2_mt_posix::value_ref", ptr %4, i32 0, i32 0
  %14 = getelementptr inbounds nuw %"class.boost::log::v2_mt_posix::aux::singular_ref", ptr %13, i32 0, i32 0
  store ptr %12, ptr %14, align 8
  %15 = getelementptr inbounds nuw %"class.boost::log::v2_mt_posix::value_ref", ptr %4, i32 0, i32 0
  %16 = getelementptr inbounds nuw %"class.boost::log::v2_mt_posix::aux::singular_ref", ptr %15, i32 0, i32 0
  %17 = load ptr, ptr %16, align 8
  ret ptr %17
}

; Function Attrs: mustprogress nounwind uwtable
define linkonce_odr hidden noundef nonnull align 8 dereferenceable(8) ptr @_ZNK5boost3log11v2_mt_posix11record_view16attribute_valuesEv(ptr noundef nonnull align 8 dereferenceable(8) %0) #2 comdat align 2 {
  %2 = alloca ptr, align 8
  store ptr %0, ptr %2, align 8, !tbaa !3
  %3 = load ptr, ptr %2, align 8
  %4 = getelementptr inbounds nuw %"class.boost::log::v2_mt_posix::record_view", ptr %3, i32 0, i32 0
  %5 = call noundef ptr @_ZNK5boost13intrusive_ptrINS_3log11v2_mt_posix11record_view11public_dataEEptEv(ptr noundef nonnull align 8 dereferenceable(8) %4) #17
  %6 = getelementptr inbounds nuw %"struct.boost::log::v2_mt_posix::record_view::public_data", ptr %5, i32 0, i32 1
  ret ptr %6
}

; Function Attrs: mustprogress uwtable
define linkonce_odr hidden void @_ZNSt10lock_guardISt5mutexEC2ERS0_(ptr noundef nonnull align 8 dereferenceable(8) %0, ptr noundef nonnull align 8 dereferenceable(40) %1) unnamed_addr #3 comdat align 2 {
  %3 = alloca ptr, align 8
  %4 = alloca ptr, align 8
  store ptr %0, ptr %3, align 8, !tbaa !3
  store ptr %1, ptr %4, align 8, !tbaa !3
  %5 = load ptr, ptr %3, align 8
  %6 = getelementptr inbounds nuw %"class.std::lock_guard", ptr %5, i32 0, i32 0
  %7 = load ptr, ptr %4, align 8, !tbaa !3
  store ptr %7, ptr %6, align 8, !tbaa !3
  %8 = getelementptr inbounds nuw %"class.std::lock_guard", ptr %5, i32 0, i32 0
  %9 = load ptr, ptr %8, align 8, !tbaa !17
  call void @_ZNSt5mutex4lockEv(ptr noundef nonnull align 8 dereferenceable(40) %9)
  ret void
}

; Function Attrs: mustprogress uwtable
define hidden void @_ZN5boost3log11v2_mt_posix5sinks3aux12default_sink7consumeERKNS1_11record_viewE(ptr noundef nonnull align 8 dereferenceable(69) %0, ptr noundef nonnull align 8 dereferenceable(8) %1) unnamed_addr #3 align 2 personality ptr @__gxx_personality_v0 {
  %3 = alloca ptr, align 8
  %4 = alloca ptr, align 8
  %5 = alloca %"class.std::lock_guard", align 8
  %6 = alloca %"struct.boost::log::v2_mt_posix::sinks::aux::anonymous::message_printer", align 4
  %7 = alloca %"class.boost::log::v2_mt_posix::value_ref", align 8
  %8 = alloca ptr, align 8
  %9 = alloca i32, align 4
  %10 = alloca %"class.boost::log::v2_mt_posix::visitation_result", align 4
  store ptr %0, ptr %3, align 8, !tbaa !3
  store ptr %1, ptr %4, align 8, !tbaa !3
  %11 = load ptr, ptr %3, align 8
  call void @llvm.lifetime.start.p0(i64 8, ptr %5) #17
  %12 = getelementptr inbounds nuw %"class.boost::log::v2_mt_posix::sinks::aux::default_sink", ptr %11, i32 0, i32 2
  call void @_ZNSt10lock_guardISt5mutexEC2ERS0_(ptr noundef nonnull align 8 dereferenceable(8) %5, ptr noundef nonnull align 8 dereferenceable(40) %12)
  %13 = getelementptr inbounds i8, ptr %11, i64 68
  %14 = getelementptr inbounds nuw %"class.boost::log::v2_mt_posix::sinks::aux::default_sink", ptr %11, i32 0, i32 4
  %15 = load ptr, ptr %4, align 8, !tbaa !3
  %16 = call noundef nonnull align 8 dereferenceable(8) ptr @_ZNK5boost3log11v2_mt_posix11record_view16attribute_valuesEv(ptr noundef nonnull align 8 dereferenceable(8) %15) #17
  call void @llvm.lifetime.start.p0(i64 8, ptr %7) #17
  %17 = getelementptr inbounds nuw %"class.boost::log::v2_mt_posix::sinks::aux::default_sink", ptr %11, i32 0, i32 5
  %18 = getelementptr inbounds nuw %"class.boost::log::v2_mt_posix::sinks::aux::default_sink", ptr %11, i32 0, i32 3
  %19 = load ptr, ptr %4, align 8, !tbaa !3
  %20 = invoke ptr @_ZNK5boost3log11v2_mt_posix15value_extractorINS1_7trivial14severity_levelENS1_19fallback_to_defaultIS4_EEvEclERKNS1_14attribute_nameERKNS1_11record_viewE(ptr noundef nonnull align 4 dereferenceable(4) %17, ptr noundef nonnull align 4 dereferenceable(4) %18, ptr noundef nonnull align 8 dereferenceable(8) %19)
          to label %21 unwind label %35

21:                                               ; preds = %2
  %22 = getelementptr inbounds nuw %"class.boost::log::v2_mt_posix::value_ref", ptr %7, i32 0, i32 0
  %23 = getelementptr inbounds nuw %"class.boost::log::v2_mt_posix::aux::singular_ref", ptr %22, i32 0, i32 0
  store ptr %20, ptr %23, align 8
  %24 = call noundef nonnull align 4 dereferenceable(4) ptr @_ZNK5boost3log11v2_mt_posix3aux12singular_refINS1_7trivial14severity_levelEvE3getEv(ptr noundef nonnull align 8 dereferenceable(8) %7) #17
  %25 = load i32, ptr %24, align 4, !tbaa !9
  invoke void @_ZN5boost3log11v2_mt_posix5sinks3aux9anonymous15message_printerC2ENS1_7trivial14severity_levelE(ptr noundef nonnull align 4 dereferenceable(4) %6, i32 noundef %25)
          to label %26 unwind label %35

26:                                               ; preds = %21
  %27 = getelementptr inbounds nuw %"struct.boost::log::v2_mt_posix::sinks::aux::anonymous::message_printer", ptr %6, i32 0, i32 0
  %28 = load i32, ptr %27, align 4
  %29 = invoke i32 @_ZNK5boost3log11v2_mt_posix21value_visitor_invokerINS_3mpl7vector2INSt7__cxx1112basic_stringIcSt11char_traitsIcESaIcEEENS6_IwS7_IwESaIwEEEEENS1_16fallback_to_noneEEclINS1_5sinks3aux9anonymous15message_printerEEENS1_17visitation_resultERKNS1_14attribute_nameERKNS1_19attribute_value_setET_(ptr noundef nonnull align 1 dereferenceable(1) %13, ptr noundef nonnull align 4 dereferenceable(4) %14, ptr noundef nonnull align 8 dereferenceable(8) %16, i32 %28)
          to label %30 unwind label %35

30:                                               ; preds = %26
  %31 = getelementptr inbounds nuw %"class.boost::log::v2_mt_posix::visitation_result", ptr %10, i32 0, i32 0
  store i32 %29, ptr %31, align 4
  call void @llvm.lifetime.end.p0(i64 8, ptr %7) #17
  %32 = load ptr, ptr @stdout, align 8, !tbaa !3
  %33 = invoke i32 @fflush(ptr noundef %32)
          to label %34 unwind label %39

34:                                               ; preds = %30
  call void @_ZNSt10lock_guardISt5mutexED2Ev(ptr noundef nonnull align 8 dereferenceable(8) %5) #17
  call void @llvm.lifetime.end.p0(i64 8, ptr %5) #17
  ret void

35:                                               ; preds = %26, %21, %2
  %36 = landingpad { ptr, i32 }
          cleanup
  %37 = extractvalue { ptr, i32 } %36, 0
  store ptr %37, ptr %8, align 8
  %38 = extractvalue { ptr, i32 } %36, 1
  store i32 %38, ptr %9, align 4
  call void @llvm.lifetime.end.p0(i64 8, ptr %7) #17
  br label %43

39:                                               ; preds = %30
  %40 = landingpad { ptr, i32 }
          cleanup
  %41 = extractvalue { ptr, i32 } %40, 0
  store ptr %41, ptr %8, align 8
  %42 = extractvalue { ptr, i32 } %40, 1
  store i32 %42, ptr %9, align 4
  br label %43

43:                                               ; preds = %39, %35
  call void @_ZNSt10lock_guardISt5mutexED2Ev(ptr noundef nonnull align 8 dereferenceable(8) %5) #17
  call void @llvm.lifetime.end.p0(i64 8, ptr %5) #17
  br label %44

44:                                               ; preds = %43
  %45 = load ptr, ptr %8, align 8
  %46 = load i32, ptr %9, align 4
  %47 = insertvalue { ptr, i32 } poison, ptr %45, 0
  %48 = insertvalue { ptr, i32 } %47, i32 %46, 1
  resume { ptr, i32 } %48
}