; Function Attrs: mustprogress uwtable
define hidden void @_ZN5boost3log11v2_mt_posix5sinks3aux12default_sink7consumeERKNS1_11record_viewE(ptr noundef nonnull align 8 dereferenceable(69) %0, ptr nocapture noundef nonnull readonly align 8 dereferenceable(8) %1) unnamed_addr #3 align 2 personality ptr @__gxx_personality_v0 {
  %3 = getelementptr inbounds nuw i8, ptr %0, i64 16
  %4 = tail call noundef i32 @pthread_mutex_lock(ptr noundef nonnull align 8 dereferenceable(40) %3) #26
  %.not.i.i = icmp eq i32 %4, 0
  br i1 %.not.i.i, label %_ZNSt10lock_guardISt5mutexEC2ERS0_.exit, label %5

5:                                                ; preds = %2
  tail call void @_ZSt20__throw_system_errori(i32 noundef %4) #29
  unreachable

_ZNSt10lock_guardISt5mutexEC2ERS0_.exit:          ; preds = %2
  %6 = load ptr, ptr %1, align 8, !tbaa !13
  %7 = getelementptr inbounds nuw i8, ptr %6, i64 8
  %8 = getelementptr inbounds nuw i8, ptr %0, i64 64
  %9 = getelementptr inbounds nuw i8, ptr %0, i64 56
  %10 = invoke ptr @_ZNK5boost3log11v2_mt_posix15value_extractorINS1_7trivial14severity_levelENS1_19fallback_to_defaultIS4_EEvEclERKNS1_14attribute_nameERKNS1_19attribute_value_setE(ptr noundef nonnull align 4 dereferenceable(4) %8, ptr noundef nonnull align 4 dereferenceable(4) %9, ptr noundef nonnull align 8 dereferenceable(8) %7)
          to label %_ZNK5boost3log11v2_mt_posix15value_extractorINS1_7trivial14severity_levelENS1_19fallback_to_defaultIS4_EEvEclERKNS1_14attribute_nameERKNS1_11record_viewE.exit unwind label %19

_ZNK5boost3log11v2_mt_posix15value_extractorINS1_7trivial14severity_levelENS1_19fallback_to_defaultIS4_EEvEclERKNS1_14attribute_nameERKNS1_11record_viewE.exit: ; preds = %_ZNSt10lock_guardISt5mutexEC2ERS0_.exit
  %11 = getelementptr inbounds nuw i8, ptr %0, i64 60
  %12 = getelementptr inbounds i8, ptr %0, i64 68
  %13 = load i32, ptr %10, align 4, !tbaa !16
  %14 = invoke i32 @_ZNK5boost3log11v2_mt_posix21value_visitor_invokerINS_3mpl7vector2INSt7__cxx1112basic_stringIcSt11char_traitsIcESaIcEEENS6_IwS7_IwESaIwEEEEENS1_16fallback_to_noneEEclINS1_5sinks3aux9anonymous15message_printerEEENS1_17visitation_resultERKNS1_14attribute_nameERKNS1_19attribute_value_setET_(ptr noundef nonnull align 1 dereferenceable(1) %12, ptr noundef nonnull align 4 dereferenceable(4) %11, ptr noundef nonnull align 8 dereferenceable(8) %7, i32 %13)
          to label %15 unwind label %19

15:                                               ; preds = %_ZNK5boost3log11v2_mt_posix15value_extractorINS1_7trivial14severity_levelENS1_19fallback_to_defaultIS4_EEvEclERKNS1_14attribute_nameERKNS1_11record_viewE.exit
  %16 = load ptr, ptr @stdout, align 8, !tbaa !17
  %17 = tail call i32 @fflush(ptr noundef %16)
  %18 = tail call noundef i32 @pthread_mutex_unlock(ptr noundef nonnull align 8 dereferenceable(40) %3) #26
  ret void

19:                                               ; preds = %_ZNSt10lock_guardISt5mutexEC2ERS0_.exit, %_ZNK5boost3log11v2_mt_posix15value_extractorINS1_7trivial14severity_levelENS1_19fallback_to_defaultIS4_EEvEclERKNS1_14attribute_nameERKNS1_11record_viewE.exit
  %20 = landingpad { ptr, i32 }
          cleanup
  %21 = tail call noundef i32 @pthread_mutex_unlock(ptr noundef nonnull align 8 dereferenceable(40) %3) #26
  resume { ptr, i32 } %20
}